target datalayout = "e-m:e-p270:32:32-p271:32:32-p272:64:64-i64:64-i128:128-f80:128-n8:16:32:64-S128"
target triple = "x86_64-pc-linux-gnu"

%struct.List = type { i32, i32, i32, ptr, [0 x %union.ListCell] }
%union.ListCell = type { ptr }
%struct.ExplainState = type { ptr, i8, i8, i8, i8, i8, i8, i8, i8, i8, i8, i32, i32, i32, ptr, ptr, ptr, ptr, ptr, ptr, i8, i32, ptr }

@.str.52 = private unnamed_addr constant [3 x i8] c"- \00", align 1
@.str.59 = private unnamed_addr constant [3 x i8] c": \00", align 1

; Function Attrs: inlinehint nounwind uwtable
define internal ptr @list_nth_cell(ptr noundef %0, i32 noundef %1) #6 {
  %3 = alloca ptr, align 8
  %4 = alloca i32, align 4
  store ptr %0, ptr %3, align 8
  store i32 %1, ptr %4, align 4
  %5 = load ptr, ptr %3, align 8
  %6 = getelementptr inbounds nuw %struct.List, ptr %5, i32 0, i32 3
  %7 = load ptr, ptr %6, align 8
  %8 = load i32, ptr %4, align 4
  %9 = sext i32 %8 to i64
  %10 = getelementptr inbounds %union.ListCell, ptr %7, i64 %9
  ret ptr %10
}

; Function Attrs: nounwind uwtable
define internal void @escape_yaml(ptr noundef %0, ptr noundef %1) #0 {
  %3 = alloca ptr, align 8
  %4 = alloca ptr, align 8
  store ptr %0, ptr %3, align 8
  store ptr %1, ptr %4, align 8
  %5 = load ptr, ptr %3, align 8
  %6 = load ptr, ptr %4, align 8
  call void @escape_json(ptr noundef %5, ptr noundef %6)
  ret void
}

; Function Attrs: nounwind uwtable
define internal void @ExplainYAMLLineStarting(ptr noundef %0) #0 {
  %2 = alloca ptr, align 8
  store ptr %0, ptr %2, align 8
  %3 = load ptr, ptr %2, align 8
  %4 = getelementptr inbounds nuw %struct.ExplainState, ptr %3, i32 0, i32 14
  %5 = load ptr, ptr %4, align 8
  %6 = call ptr @list_nth_cell(ptr noundef %5, i32 noundef 0)
  %7 = load i32, ptr %6, align 8
  %8 = icmp eq i32 %7, 0
  br i1 %8, label %9, label %14

9:                                                ; preds = %1
  %10 = load ptr, ptr %2, align 8
  %11 = getelementptr inbounds nuw %struct.ExplainState, ptr %10, i32 0, i32 14
  %12 = load ptr, ptr %11, align 8
  %13 = call ptr @list_nth_cell(ptr noundef %12, i32 noundef 0)
  store i32 1, ptr %13, align 8
  br label %25

14:                                               ; preds = %1
  %15 = load ptr, ptr %2, align 8
  %16 = getelementptr inbounds nuw %struct.ExplainState, ptr %15, i32 0, i32 0
  %17 = load ptr, ptr %16, align 8
  call void @appendStringInfoChar(ptr noundef %17, i8 noundef signext 10)
  %18 = load ptr, ptr %2, align 8
  %19 = getelementptr inbounds nuw %struct.ExplainState, ptr %18, i32 0, i32 0
  %20 = load ptr, ptr %19, align 8
  %21 = load ptr, ptr %2, align 8
  %22 = getelementptr inbounds nuw %struct.ExplainState, ptr %21, i32 0, i32 13
  %23 = load i32, ptr %22, align 4
  %24 = mul i32 %23, 2
  call void @appendStringInfoSpaces(ptr noundef %20, i32 noundef %24)
  br label %25

25:                                               ; preds = %14, %9
  ret void
}

; Function Attrs: nounwind uwtable
define internal void @ExplainJSONLineEnding(ptr noundef %0) #0 {
  %2 = alloca ptr, align 8
  store ptr %0, ptr %2, align 8
  %3 = load ptr, ptr %2, align 8
  %4 = getelementptr inbounds nuw %struct.ExplainState, ptr %3, i32 0, i32 14
  %5 = load ptr, ptr %4, align 8
  %6 = call ptr @list_nth_cell(ptr noundef %5, i32 noundef 0)
  %7 = load i32, ptr %6, align 8
  %8 = icmp ne i32 %7, 0
  br i1 %8, label %9, label %13

9:                                                ; preds = %1
  %10 = load ptr, ptr %2, align 8
  %11 = getelementptr inbounds nuw %struct.ExplainState, ptr %10, i32 0, i32 0
  %12 = load ptr, ptr %11, align 8
  call void @appendStringInfoChar(ptr noundef %12, i8 noundef signext 44)
  br label %18

13:                                               ; preds = %1
  %14 = load ptr, ptr %2, align 8
  %15 = getelementptr inbounds nuw %struct.ExplainState, ptr %14, i32 0, i32 14
  %16 = load ptr, ptr %15, align 8
  %17 = call ptr @list_nth_cell(ptr noundef %16, i32 noundef 0)
  store i32 1, ptr %17, align 8
  br label %18

18:                                               ; preds = %13, %9
  %19 = load ptr, ptr %2, align 8
  %20 = getelementptr inbounds nuw %struct.ExplainState, ptr %19, i32 0, i32 0
  %21 = load ptr, ptr %20, align 8
  call void @appendStringInfoChar(ptr noundef %21, i8 noundef signext 10)
  ret void
}

; Function Attrs: nounwind uwtable
define internal void @ExplainDummyGroup(ptr noundef %0, ptr noundef %1, ptr noundef %2) #0 {
  %4 = alloca ptr, align 8
  %5 = alloca ptr, align 8
  %6 = alloca ptr, align 8
  store ptr %0, ptr %4, align 8
  store ptr %1, ptr %5, align 8
  store ptr %2, ptr %6, align 8
  %7 = load ptr, ptr %6, align 8
  %8 = getelementptr inbounds nuw %struct.ExplainState, ptr %7, i32 0, i32 12
  %9 = load i32, ptr %8, align 8
  switch i32 %9, label %58 [
    i32 0, label %58
    i32 1, label %10
    i32 2, label %13
    i32 3, label %37
  ]

10:                                               ; preds = %3
  %11 = load ptr, ptr %4, align 8
  %12 = load ptr, ptr %6, align 8
  call void @ExplainXMLTag(ptr noundef %11, i32 noundef 2, ptr noundef %12)
  br label %58

13:                                               ; preds = %3
  %14 = load ptr, ptr %6, align 8
  call void @ExplainJSONLineEnding(ptr noundef %14)
  %15 = load ptr, ptr %6, align 8
  %16 = getelementptr inbounds nuw %struct.ExplainState, ptr %15, i32 0, i32 0
  %17 = load ptr, ptr %16, align 8
  %18 = load ptr, ptr %6, align 8
  %19 = getelementptr inbounds nuw %struct.ExplainState, ptr %18, i32 0, i32 13
  %20 = load i32, ptr %19, align 4
  %21 = mul i32 2, %20
  call void @appendStringInfoSpaces(ptr noundef %17, i32 noundef %21)
  %22 = load ptr, ptr %5, align 8
  %23 = icmp ne ptr %22, null
  br i1 %23, label %24, label %32

24:                                               ; preds = %13
  %25 = load ptr, ptr %6, align 8
  %26 = getelementptr inbounds nuw %struct.ExplainState, ptr %25, i32 0, i32 0
  %27 = load ptr, ptr %26, align 8
  %28 = load ptr, ptr %5, align 8
  call void @escape_json(ptr noundef %27, ptr noundef %28)
  %29 = load ptr, ptr %6, align 8
  %30 = getelementptr inbounds nuw %struct.ExplainState, ptr %29, i32 0, i32 0
  %31 = load ptr, ptr %30, align 8
  call void @appendStringInfoString(ptr noundef %31, ptr noundef @.str.59)
  br label %32

32:                                               ; preds = %24, %13
  %33 = load ptr, ptr %6, align 8
  %34 = getelementptr inbounds nuw %struct.ExplainState, ptr %33, i32 0, i32 0
  %35 = load ptr, ptr %34, align 8
  %36 = load ptr, ptr %4, align 8
  call void @escape_json(ptr noundef %35, ptr noundef %36)
  br label %58

37:                                               ; preds = %3
  %38 = load ptr, ptr %6, align 8
  call void @ExplainYAMLLineStarting(ptr noundef %38)
  %39 = load ptr, ptr %5, align 8
  %40 = icmp ne ptr %39, null
  br i1 %40, label %41, label %49

41:                                               ; preds = %37
  %42 = load ptr, ptr %6, align 8
  %43 = getelementptr inbounds nuw %struct.ExplainState, ptr %42, i32 0, i32 0
  %44 = load ptr, ptr %43, align 8
  %45 = load ptr, ptr %5, align 8
  call void @escape_yaml(ptr noundef %44, ptr noundef %45)
  %46 = load ptr, ptr %6, align 8
  %47 = getelementptr inbounds nuw %struct.ExplainState, ptr %46, i32 0, i32 0
  %48 = load ptr, ptr %47, align 8
  call void @appendStringInfoString(ptr noundef %48, ptr noundef @.str.59)
  br label %53

49:                                               ; preds = %37
  %50 = load ptr, ptr %6, align 8
  %51 = getelementptr inbounds nuw %struct.ExplainState, ptr %50, i32 0, i32 0
  %52 = load ptr, ptr %51, align 8
  call void @appendStringInfoString(ptr noundef %52, ptr noundef @.str.52)
  br label %53

53:                                               ; preds = %49, %41
  %54 = load ptr, ptr %6, align 8
  %55 = getelementptr inbounds nuw %struct.ExplainState, ptr %54, i32 0, i32 0
  %56 = load ptr, ptr %55, align 8
  %57 = load ptr, ptr %4, align 8
  call void @escape_yaml(ptr noundef %56, ptr noundef %57)
  br label %58

58:                                               ; preds = %3, %53, %32, %10, %3
  ret void
}