; Function Attrs: nounwind uwtable
define internal fastcc void @ExplainDummyGroup(ptr noundef %0, ptr noundef readonly captures(none) %1) unnamed_addr #0 {
  %3 = getelementptr inbounds nuw i8, ptr %1, i64 24
  %4 = load i32, ptr %3, align 8
  switch i32 %4, label %35 [
    i32 3, label %20
    i32 1, label %5
    i32 2, label %6
  ]

5:                                                ; preds = %2
  tail call fastcc void @ExplainXMLTag(ptr noundef %0, i32 noundef 2, ptr noundef nonnull %1)
  br label %35

6:                                                ; preds = %2
  %7 = getelementptr inbounds nuw i8, ptr %1, i64 32
  %8 = load ptr, ptr %7, align 8
  %9 = getelementptr i8, ptr %8, i64 16
  %.val4.i = load ptr, ptr %9, align 8
  %10 = load i32, ptr %.val4.i, align 8
  %.not.i = icmp eq i32 %10, 0
  br i1 %.not.i, label %13, label %11

11:                                               ; preds = %6
  %12 = load ptr, ptr %1, align 8
  tail call void @appendStringInfoChar(ptr noundef %12, i8 noundef signext 44) #13
  br label %ExplainJSONLineEnding.exit

13:                                               ; preds = %6
  store i32 1, ptr %.val4.i, align 8
  br label %ExplainJSONLineEnding.exit

ExplainJSONLineEnding.exit:                       ; preds = %11, %13
  %14 = load ptr, ptr %1, align 8
  tail call void @appendStringInfoChar(ptr noundef %14, i8 noundef signext 10) #13
  %15 = load ptr, ptr %1, align 8
  %16 = getelementptr inbounds nuw i8, ptr %1, i64 28
  %17 = load i32, ptr %16, align 4
  %18 = shl i32 %17, 1
  tail call void @appendStringInfoSpaces(ptr noundef %15, i32 noundef %18) #13
  %19 = load ptr, ptr %1, align 8
  tail call void @escape_json(ptr noundef %19, ptr noundef %0) #13
  br label %35

20:                                               ; preds = %2
  %21 = getelementptr inbounds nuw i8, ptr %1, i64 32
  %22 = load ptr, ptr %21, align 8
  %23 = getelementptr i8, ptr %22, i64 16
  %.val5.i = load ptr, ptr %23, align 8
  %24 = load i32, ptr %.val5.i, align 8
  %25 = icmp eq i32 %24, 0
  br i1 %25, label %26, label %27

26:                                               ; preds = %20
  store i32 1, ptr %.val5.i, align 8
  br label %ExplainYAMLLineStarting.exit

27:                                               ; preds = %20
  %28 = load ptr, ptr %1, align 8
  tail call void @appendStringInfoChar(ptr noundef %28, i8 noundef signext 10) #13
  %29 = load ptr, ptr %1, align 8
  %30 = getelementptr inbounds nuw i8, ptr %1, i64 28
  %31 = load i32, ptr %30, align 4
  %32 = shl i32 %31, 1
  tail call void @appendStringInfoSpaces(ptr noundef %29, i32 noundef %32) #13
  br label %ExplainYAMLLineStarting.exit

ExplainYAMLLineStarting.exit:                     ; preds = %26, %27
  %33 = load ptr, ptr %1, align 8
  tail call void @appendStringInfoString(ptr noundef %33, ptr noundef nonnull @.str.52) #13
  %34 = load ptr, ptr %1, align 8
  tail call void @escape_json(ptr noundef %34, ptr noundef %0) #13
  br label %35

35:                                               ; preds = %ExplainYAMLLineStarting.exit, %ExplainJSONLineEnding.exit, %5, %2
  ret void
}